ccopy_reg
_reconstructor
p0
(cargparse
Namespace
p1
c__builtin__
object
p2
Ntp3
Rp4
(dp5
S'last_layer'
p6
I01
sS'ae_load_path'
p7
S'saved_models/ae_model.chkpt'
p8
sS'K'
p9
I5
sS'max_iter'
p10
I100
sS'batch_size'
p11
I32
sS'save_path'
p12
S'saved_models/'
p13
sb.